target datalayout = "e-m:e-p270:32:32-p271:32:32-p272:64:64-i64:64-i128:128-f80:128-n8:16:32:64-S128"
target triple = "x86_64-pc-linux-gnu"

%struct.bb_config = type { ptr, ptr, ptr, ptr, ptr, ptr, ptr, ptr, i32, ptr, ptr, i64, i32, ptr, i32, i32, i32, i32, ptr, ptr, ptr, ptr, i32 }
%struct.burst_buffer_pool_t = type { i64, ptr, i64, i64, i64 }

; Function Attrs: nounwind uwtable
define dso_local void @bb_clear_config(ptr noundef %0, i1 noundef zeroext %1) #0 {
  %3 = alloca ptr, align 8
  %4 = alloca i8, align 1
  %5 = alloca i32, align 4
  store ptr %0, ptr %3, align 8
  %6 = zext i1 %1 to i8
  store i8 %6, ptr %4, align 1
  call void @llvm.lifetime.start.p0(i64 4, ptr %5) #9
  %7 = load ptr, ptr %3, align 8
  %8 = getelementptr inbounds nuw %struct.bb_config, ptr %7, i32 0, i32 0
  call void @slurm_xfree(ptr noundef %8)
  %9 = load ptr, ptr %3, align 8
  %10 = getelementptr inbounds nuw %struct.bb_config, ptr %9, i32 0, i32 1
  call void @slurm_xfree(ptr noundef %10)
  %11 = load ptr, ptr %3, align 8
  %12 = getelementptr inbounds nuw %struct.bb_config, ptr %11, i32 0, i32 2
  call void @slurm_xfree(ptr noundef %12)
  %13 = load ptr, ptr %3, align 8
  %14 = getelementptr inbounds nuw %struct.bb_config, ptr %13, i32 0, i32 3
  call void @slurm_xfree(ptr noundef %14)
  %15 = load ptr, ptr %3, align 8
  %16 = getelementptr inbounds nuw %struct.bb_config, ptr %15, i32 0, i32 4
  call void @slurm_xfree(ptr noundef %16)
  %17 = load ptr, ptr %3, align 8
  %18 = getelementptr inbounds nuw %struct.bb_config, ptr %17, i32 0, i32 5
  call void @slurm_xfree(ptr noundef %18)
  %19 = load ptr, ptr %3, align 8
  %20 = getelementptr inbounds nuw %struct.bb_config, ptr %19, i32 0, i32 6
  call void @slurm_xfree(ptr noundef %20)
  %21 = load ptr, ptr %3, align 8
  %22 = getelementptr inbounds nuw %struct.bb_config, ptr %21, i32 0, i32 7
  call void @slurm_xfree(ptr noundef %22)
  %23 = load ptr, ptr %3, align 8
  %24 = getelementptr inbounds nuw %struct.bb_config, ptr %23, i32 0, i32 8
  store i32 0, ptr %24, align 8
  %25 = load ptr, ptr %3, align 8
  %26 = getelementptr inbounds nuw %struct.bb_config, ptr %25, i32 0, i32 9
  call void @slurm_xfree(ptr noundef %26)
  %27 = load ptr, ptr %3, align 8
  %28 = getelementptr inbounds nuw %struct.bb_config, ptr %27, i32 0, i32 10
  call void @slurm_xfree(ptr noundef %28)
  %29 = load ptr, ptr %3, align 8
  %30 = getelementptr inbounds nuw %struct.bb_config, ptr %29, i32 0, i32 11
  store i64 1, ptr %30, align 8
  %31 = load ptr, ptr %3, align 8
  %32 = getelementptr inbounds nuw %struct.bb_config, ptr %31, i32 0, i32 14
  store i32 0, ptr %32, align 8
  %33 = load i8, ptr %4, align 1, !range !17, !noundef !18
  %34 = trunc i8 %33 to i1
  br i1 %34, label %35, label %58

35:                                               ; preds = %2
  store i32 0, ptr %5, align 4
  br label %36

36:                                               ; preds = %50, %35
  %37 = load i32, ptr %5, align 4
  %38 = load ptr, ptr %3, align 8
  %39 = getelementptr inbounds nuw %struct.bb_config, ptr %38, i32 0, i32 12
  %40 = load i32, ptr %39, align 8
  %41 = icmp ult i32 %37, %40
  br i1 %41, label %42, label %53

42:                                               ; preds = %36
  %43 = load ptr, ptr %3, align 8
  %44 = getelementptr inbounds nuw %struct.bb_config, ptr %43, i32 0, i32 13
  %45 = load ptr, ptr %44, align 8
  %46 = load i32, ptr %5, align 4
  %47 = sext i32 %46 to i64
  %48 = getelementptr inbounds %struct.burst_buffer_pool_t, ptr %45, i64 %47
  %49 = getelementptr inbounds nuw %struct.burst_buffer_pool_t, ptr %48, i32 0, i32 1
  call void @slurm_xfree(ptr noundef %49)
  br label %50

50:                                               ; preds = %42
  %51 = load i32, ptr %5, align 4
  %52 = add nsw i32 %51, 1
  store i32 %52, ptr %5, align 4
  br label %36, !llvm.loop !19

53:                                               ; preds = %36
  %54 = load ptr, ptr %3, align 8
  %55 = getelementptr inbounds nuw %struct.bb_config, ptr %54, i32 0, i32 13
  call void @slurm_xfree(ptr noundef %55)
  %56 = load ptr, ptr %3, align 8
  %57 = getelementptr inbounds nuw %struct.bb_config, ptr %56, i32 0, i32 12
  store i32 0, ptr %57, align 8
  br label %77

58:                                               ; preds = %2
  store i32 0, ptr %5, align 4
  br label %59

59:                                               ; preds = %73, %58
  %60 = load i32, ptr %5, align 4
  %61 = load ptr, ptr %3, align 8
  %62 = getelementptr inbounds nuw %struct.bb_config, ptr %61, i32 0, i32 12
  %63 = load i32, ptr %62, align 8
  %64 = icmp ult i32 %60, %63
  br i1 %64, label %65, label %76

65:                                               ; preds = %59
  %66 = load ptr, ptr %3, align 8
  %67 = getelementptr inbounds nuw %struct.bb_config, ptr %66, i32 0, i32 13
  %68 = load ptr, ptr %67, align 8
  %69 = load i32, ptr %5, align 4
  %70 = sext i32 %69 to i64
  %71 = getelementptr inbounds %struct.burst_buffer_pool_t, ptr %68, i64 %70
  %72 = getelementptr inbounds nuw %struct.burst_buffer_pool_t, ptr %71, i32 0, i32 2
  store i64 0, ptr %72, align 8
  br label %73

73:                                               ; preds = %65
  %74 = load i32, ptr %5, align 4
  %75 = add nsw i32 %74, 1
  store i32 %75, ptr %5, align 4
  br label %59, !llvm.loop !20

76:                                               ; preds = %59
  br label %77

77:                                               ; preds = %76, %53
  %78 = load ptr, ptr %3, align 8
  %79 = getelementptr inbounds nuw %struct.bb_config, ptr %78, i32 0, i32 15
  store i32 0, ptr %79, align 4
  %80 = load ptr, ptr %3, align 8
  %81 = getelementptr inbounds nuw %struct.bb_config, ptr %80, i32 0, i32 16
  store i32 0, ptr %81, align 8
  %82 = load ptr, ptr %3, align 8
  %83 = getelementptr inbounds nuw %struct.bb_config, ptr %82, i32 0, i32 17
  store i32 0, ptr %83, align 4
  %84 = load ptr, ptr %3, align 8
  %85 = getelementptr inbounds nuw %struct.bb_config, ptr %84, i32 0, i32 18
  call void @slurm_xfree(ptr noundef %85)
  %86 = load ptr, ptr %3, align 8
  %87 = getelementptr inbounds nuw %struct.bb_config, ptr %86, i32 0, i32 19
  call void @slurm_xfree(ptr noundef %87)
  %88 = load ptr, ptr %3, align 8
  %89 = getelementptr inbounds nuw %struct.bb_config, ptr %88, i32 0, i32 20
  call void @slurm_xfree(ptr noundef %89)
  %90 = load ptr, ptr %3, align 8
  %91 = getelementptr inbounds nuw %struct.bb_config, ptr %90, i32 0, i32 21
  call void @slurm_xfree(ptr noundef %91)
  %92 = load ptr, ptr %3, align 8
  %93 = getelementptr inbounds nuw %struct.bb_config, ptr %92, i32 0, i32 22
  store i32 0, ptr %93, align 8
  call void @llvm.lifetime.end.p0(i64 4, ptr %5) #9
  ret void
}