; Function Attrs: nounwind uwtable
define dso_local void @bb_clear_config(ptr noundef %0, i1 noundef zeroext %1) local_unnamed_addr #0 {
  tail call void @slurm_xfree(ptr noundef %0) #17
  %3 = getelementptr inbounds nuw i8, ptr %0, i64 8
  tail call void @slurm_xfree(ptr noundef nonnull %3) #17
  %4 = getelementptr inbounds nuw i8, ptr %0, i64 16
  tail call void @slurm_xfree(ptr noundef nonnull %4) #17
  %5 = getelementptr inbounds nuw i8, ptr %0, i64 24
  tail call void @slurm_xfree(ptr noundef nonnull %5) #17
  %6 = getelementptr inbounds nuw i8, ptr %0, i64 32
  tail call void @slurm_xfree(ptr noundef nonnull %6) #17
  %7 = getelementptr inbounds nuw i8, ptr %0, i64 40
  tail call void @slurm_xfree(ptr noundef nonnull %7) #17
  %8 = getelementptr inbounds nuw i8, ptr %0, i64 48
  tail call void @slurm_xfree(ptr noundef nonnull %8) #17
  %9 = getelementptr inbounds nuw i8, ptr %0, i64 56
  tail call void @slurm_xfree(ptr noundef nonnull %9) #17
  %10 = getelementptr inbounds nuw i8, ptr %0, i64 64
  store i32 0, ptr %10, align 8
  %11 = getelementptr inbounds nuw i8, ptr %0, i64 72
  tail call void @slurm_xfree(ptr noundef nonnull %11) #17
  %12 = getelementptr inbounds nuw i8, ptr %0, i64 80
  tail call void @slurm_xfree(ptr noundef nonnull %12) #17
  %13 = getelementptr inbounds nuw i8, ptr %0, i64 88
  store i64 1, ptr %13, align 8
  %14 = getelementptr inbounds nuw i8, ptr %0, i64 112
  store i32 0, ptr %14, align 8
  %15 = getelementptr inbounds nuw i8, ptr %0, i64 96
  %16 = load i32, ptr %15, align 8
  %.not37 = icmp eq i32 %16, 0
  br i1 %1, label %.preheader, label %.preheader33

.preheader33:                                     ; preds = %2
  br i1 %.not37, label %.loopexit, label %.lr.ph

.lr.ph:                                           ; preds = %.preheader33
  %17 = getelementptr inbounds nuw i8, ptr %0, i64 104
  br label %26

.preheader:                                       ; preds = %2
  br i1 %.not37, label %._crit_edge, label %.lr.ph36

.lr.ph36:                                         ; preds = %.preheader
  %18 = getelementptr inbounds nuw i8, ptr %0, i64 104
  br label %19

19:                                               ; preds = %.lr.ph36, %19
  %indvars.iv39 = phi i64 [ 0, %.lr.ph36 ], [ %indvars.iv.next40, %19 ]
  %20 = load ptr, ptr %18, align 8
  %21 = getelementptr inbounds nuw %struct.burst_buffer_pool_t, ptr %20, i64 %indvars.iv39, i32 1
  tail call void @slurm_xfree(ptr noundef nonnull %21) #17
  %indvars.iv.next40 = add nuw nsw i64 %indvars.iv39, 1
  %22 = load i32, ptr %15, align 8
  %23 = zext i32 %22 to i64
  %24 = icmp samesign ult i64 %indvars.iv.next40, %23
  br i1 %24, label %19, label %._crit_edge, !llvm.loop !17

._crit_edge:                                      ; preds = %19, %.preheader
  %25 = getelementptr inbounds nuw i8, ptr %0, i64 104
  tail call void @slurm_xfree(ptr noundef nonnull %25) #17
  store i32 0, ptr %15, align 8
  br label %.loopexit

26:                                               ; preds = %.lr.ph, %26
  %indvars.iv = phi i64 [ 0, %.lr.ph ], [ %indvars.iv.next, %26 ]
  %27 = load ptr, ptr %17, align 8
  %28 = getelementptr inbounds nuw %struct.burst_buffer_pool_t, ptr %27, i64 %indvars.iv, i32 2
  store i64 0, ptr %28, align 8
  %indvars.iv.next = add nuw nsw i64 %indvars.iv, 1
  %29 = load i32, ptr %15, align 8
  %30 = zext i32 %29 to i64
  %31 = icmp samesign ult i64 %indvars.iv.next, %30
  br i1 %31, label %26, label %.loopexit, !llvm.loop !18

.loopexit:                                        ; preds = %26, %.preheader33, %._crit_edge
  %32 = getelementptr inbounds nuw i8, ptr %0, i64 116
  store i32 0, ptr %32, align 4
  %33 = getelementptr inbounds nuw i8, ptr %0, i64 120
  store i32 0, ptr %33, align 8
  %34 = getelementptr inbounds nuw i8, ptr %0, i64 124
  store i32 0, ptr %34, align 4
  %35 = getelementptr inbounds nuw i8, ptr %0, i64 128
  tail call void @slurm_xfree(ptr noundef nonnull %35) #17
  %36 = getelementptr inbounds nuw i8, ptr %0, i64 136
  tail call void @slurm_xfree(ptr noundef nonnull %36) #17
  %37 = getelementptr inbounds nuw i8, ptr %0, i64 144
  tail call void @slurm_xfree(ptr noundef nonnull %37) #17
  %38 = getelementptr inbounds nuw i8, ptr %0, i64 152
  tail call void @slurm_xfree(ptr noundef nonnull %38) #17
  %39 = getelementptr inbounds nuw i8, ptr %0, i64 160
  store i32 0, ptr %39, align 8
  ret void
}